target datalayout = "e-m:e-p270:32:32-p271:32:32-p272:64:64-i64:64-i128:128-f80:128-n8:16:32:64-S128"
target triple = "x86_64-pc-linux-gnu"

%struct.ident_t = type { i32, i32, i32, i32, ptr }
%"struct.faiss::ClusteringParameters" = type { i32, i32, i8, i8, i8, i8, i8, i32, i32, i32, i64 }
%"class.std::vector" = type { %"struct.std::_Vector_base" }
%"struct.std::_Vector_base" = type { %"struct.std::_Vector_base<float, std::allocator<float>>::_Vector_impl" }
%"struct.std::_Vector_base<float, std::allocator<float>>::_Vector_impl" = type { %"struct.std::_Vector_base<float, std::allocator<float>>::_Vector_impl_data" }
%"struct.std::_Vector_base<float, std::allocator<float>>::_Vector_impl_data" = type { ptr, ptr, ptr }
%"struct.faiss::ProductQuantizer" = type { %"struct.faiss::Quantizer", i64, i64, i64, i64, i8, i32, %"struct.faiss::ClusteringParameters", ptr, %"class.std::vector", %"class.std::vector", %"class.std::vector", %"class.std::vector" }
%"struct.faiss::Quantizer" = type { ptr, i64, i64 }

@1 = private unnamed_addr constant %struct.ident_t { i32 0, i32 514, i32 0, i32 22, ptr @0 }, align 8

; Function Attrs: mustprogress nounwind uwtable
define linkonce_odr noundef ptr @_ZNKSt6vectorIfSaIfEE11_M_data_ptrIfEEPT_S4_(ptr noundef nonnull align 8 dereferenceable(24) %0, ptr noundef %1) #1 comdat align 2 {
  %3 = alloca ptr, align 8
  %4 = alloca ptr, align 8
  store ptr %0, ptr %3, align 8
  store ptr %1, ptr %4, align 8
  %5 = load ptr, ptr %4, align 8
  ret ptr %5
}

; Function Attrs: mustprogress nounwind uwtable
define linkonce_odr noundef ptr @_ZNSt6vectorIfSaIfEE4dataEv(ptr noundef nonnull align 8 dereferenceable(24) %0) #1 comdat align 2 {
  %2 = alloca ptr, align 8
  store ptr %0, ptr %2, align 8
  %3 = load ptr, ptr %2, align 8
  %4 = getelementptr inbounds %"struct.std::_Vector_base", ptr %3, i32 0, i32 0
  %5 = getelementptr inbounds %"struct.std::_Vector_base<float, std::allocator<float>>::_Vector_impl_data", ptr %4, i32 0, i32 0
  %6 = load ptr, ptr %5, align 8
  %7 = call noundef ptr @_ZNKSt6vectorIfSaIfEE11_M_data_ptrIfEEPT_S4_(ptr noundef nonnull align 8 dereferenceable(24) %3, ptr noundef %6) #12
  ret ptr %7
}

; Function Attrs: norecurse nounwind uwtable
define internal void @_ZN5faiss16ProductQuantizer17compute_sdc_tableEv.omp_outlined(ptr noalias noundef %0, ptr noalias noundef %1, ptr noundef %2) #11 personality ptr @__gxx_personality_v0 {
  %4 = alloca ptr, align 8
  %5 = alloca ptr, align 8
  %6 = alloca ptr, align 8
  %7 = alloca i32, align 4
  %8 = alloca i64, align 8
  %9 = alloca i32, align 4
  %10 = alloca i32, align 4
  %11 = alloca i32, align 4
  %12 = alloca i32, align 4
  %13 = alloca i32, align 4
  %14 = alloca i32, align 4
  %15 = alloca i32, align 4
  %16 = alloca i32, align 4
  %17 = alloca i32, align 4
  %18 = alloca ptr, align 8
  %19 = alloca ptr, align 8
  %20 = alloca ptr, align 8
  store ptr %0, ptr %4, align 8
  store ptr %1, ptr %5, align 8
  store ptr %2, ptr %6, align 8
  %21 = load ptr, ptr %6, align 8
  %22 = getelementptr inbounds %"struct.faiss::ProductQuantizer", ptr %21, i32 0, i32 1
  %23 = load i64, ptr %22, align 8
  %24 = getelementptr inbounds %"struct.faiss::ProductQuantizer", ptr %21, i32 0, i32 4
  %25 = load i64, ptr %24, align 8
  %26 = mul i64 %23, %25
  store i64 %26, ptr %8, align 8
  %27 = load i64, ptr %8, align 8
  %28 = sub i64 %27, 0
  %29 = udiv i64 %28, 1
  %30 = trunc i64 %29 to i32
  %31 = sub nsw i32 %30, 1
  store i32 %31, ptr %9, align 4
  store i32 0, ptr %10, align 4
  %32 = load i64, ptr %8, align 8
  %33 = icmp ult i64 0, %32
  br i1 %33, label %34, label %119

34:                                               ; preds = %3
  store i32 0, ptr %11, align 4
  %35 = load i32, ptr %9, align 4
  store i32 %35, ptr %12, align 4
  store i32 1, ptr %13, align 4
  store i32 0, ptr %14, align 4
  %36 = load ptr, ptr %4, align 8
  %37 = load i32, ptr %36, align 4
  call void @__kmpc_for_static_init_4(ptr @1, i32 %37, i32 34, ptr %14, ptr %11, ptr %12, ptr %13, i32 1, i32 1)
  %38 = load i32, ptr %12, align 4
  %39 = load i32, ptr %9, align 4
  %40 = icmp sgt i32 %38, %39
  br i1 %40, label %41, label %43

41:                                               ; preds = %34
  %42 = load i32, ptr %9, align 4
  br label %45

43:                                               ; preds = %34
  %44 = load i32, ptr %12, align 4
  br label %45

45:                                               ; preds = %43, %41
  %46 = phi i32 [ %42, %41 ], [ %44, %43 ]
  store i32 %46, ptr %12, align 4
  %47 = load i32, ptr %11, align 4
  store i32 %47, ptr %7, align 4
  br label %48

48:                                               ; preds = %112, %45
  %49 = load i32, ptr %7, align 4
  %50 = load i32, ptr %12, align 4
  %51 = icmp sle i32 %49, %50
  br i1 %51, label %52, label %115

52:                                               ; preds = %48
  %53 = load i32, ptr %7, align 4
  %54 = mul nsw i32 %53, 1
  %55 = add nsw i32 0, %54
  store i32 %55, ptr %15, align 4
  %56 = load i32, ptr %15, align 4
  %57 = sext i32 %56 to i64
  %58 = getelementptr inbounds %"struct.faiss::ProductQuantizer", ptr %21, i32 0, i32 4
  %59 = load i64, ptr %58, align 8
  %60 = udiv i64 %57, %59
  %61 = trunc i64 %60 to i32
  store i32 %61, ptr %16, align 4
  %62 = load i32, ptr %15, align 4
  %63 = sext i32 %62 to i64
  %64 = getelementptr inbounds %"struct.faiss::ProductQuantizer", ptr %21, i32 0, i32 4
  %65 = load i64, ptr %64, align 8
  %66 = urem i64 %63, %65
  %67 = trunc i64 %66 to i32
  store i32 %67, ptr %17, align 4
  %68 = getelementptr inbounds %"struct.faiss::ProductQuantizer", ptr %21, i32 0, i32 9
  %69 = call noundef ptr @_ZNSt6vectorIfSaIfEE4dataEv(ptr noundef nonnull align 8 dereferenceable(24) %68) #12
  %70 = load i32, ptr %16, align 4
  %71 = sext i32 %70 to i64
  %72 = getelementptr inbounds %"struct.faiss::ProductQuantizer", ptr %21, i32 0, i32 4
  %73 = load i64, ptr %72, align 8
  %74 = mul i64 %71, %73
  %75 = getelementptr inbounds %"struct.faiss::ProductQuantizer", ptr %21, i32 0, i32 3
  %76 = load i64, ptr %75, align 8
  %77 = mul i64 %74, %76
  %78 = getelementptr inbounds float, ptr %69, i64 %77
  store ptr %78, ptr %18, align 8
  %79 = load ptr, ptr %18, align 8
  %80 = load i32, ptr %17, align 4
  %81 = sext i32 %80 to i64
  %82 = getelementptr inbounds %"struct.faiss::ProductQuantizer", ptr %21, i32 0, i32 3
  %83 = load i64, ptr %82, align 8
  %84 = mul i64 %81, %83
  %85 = getelementptr inbounds float, ptr %79, i64 %84
  store ptr %85, ptr %19, align 8
  %86 = getelementptr inbounds %"struct.faiss::ProductQuantizer", ptr %21, i32 0, i32 12
  %87 = call noundef ptr @_ZNSt6vectorIfSaIfEE4dataEv(ptr noundef nonnull align 8 dereferenceable(24) %86) #12
  %88 = load i32, ptr %16, align 4
  %89 = sext i32 %88 to i64
  %90 = getelementptr inbounds %"struct.faiss::ProductQuantizer", ptr %21, i32 0, i32 4
  %91 = load i64, ptr %90, align 8
  %92 = mul i64 %89, %91
  %93 = getelementptr inbounds %"struct.faiss::ProductQuantizer", ptr %21, i32 0, i32 4
  %94 = load i64, ptr %93, align 8
  %95 = mul i64 %92, %94
  %96 = getelementptr inbounds float, ptr %87, i64 %95
  store ptr %96, ptr %20, align 8
  %97 = load ptr, ptr %20, align 8
  %98 = load i32, ptr %17, align 4
  %99 = sext i32 %98 to i64
  %100 = getelementptr inbounds %"struct.faiss::ProductQuantizer", ptr %21, i32 0, i32 4
  %101 = load i64, ptr %100, align 8
  %102 = mul i64 %99, %101
  %103 = getelementptr inbounds float, ptr %97, i64 %102
  %104 = load ptr, ptr %19, align 8
  %105 = load ptr, ptr %18, align 8
  %106 = getelementptr inbounds %"struct.faiss::ProductQuantizer", ptr %21, i32 0, i32 3
  %107 = load i64, ptr %106, align 8
  %108 = getelementptr inbounds %"struct.faiss::ProductQuantizer", ptr %21, i32 0, i32 4
  %109 = load i64, ptr %108, align 8
  invoke void @_ZN5faiss13fvec_L2sqr_nyEPfPKfS2_mm(ptr noundef %103, ptr noundef %104, ptr noundef %105, i64 noundef %107, i64 noundef %109)
          to label %110 unwind label %120

110:                                              ; preds = %52
  br label %111

111:                                              ; preds = %110
  br label %112

112:                                              ; preds = %111
  %113 = load i32, ptr %7, align 4
  %114 = add nsw i32 %113, 1
  store i32 %114, ptr %7, align 4
  br label %48

115:                                              ; preds = %48
  br label %116

116:                                              ; preds = %115
  %117 = load ptr, ptr %4, align 8
  %118 = load i32, ptr %117, align 4
  call void @__kmpc_for_static_fini(ptr @1, i32 %118)
  br label %119

119:                                              ; preds = %116, %3
  ret void

120:                                              ; preds = %52
  %121 = landingpad { ptr, i32 }
          catch ptr null
  %122 = extractvalue { ptr, i32 } %121, 0
  call void @__clang_call_terminate(ptr %122) #16
  unreachable
}