; Function Attrs: norecurse nounwind uwtable
define internal void @_ZN5faiss16ProductQuantizer17compute_sdc_tableEv.omp_outlined(ptr noalias nocapture noundef readonly %0, ptr noalias nocapture readnone %1, ptr nocapture noundef readonly %2) #15 personality ptr @__gxx_personality_v0 {
  %4 = alloca i32, align 4
  %5 = alloca i32, align 4
  %6 = alloca i32, align 4
  %7 = alloca i32, align 4
  %8 = getelementptr inbounds i8, ptr %2, i64 24
  %9 = load i64, ptr %8, align 8
  %10 = getelementptr inbounds i8, ptr %2, i64 48
  %11 = load i64, ptr %10, align 8
  %12 = mul i64 %11, %9
  %.not = icmp eq i64 %12, 0
  br i1 %.not, label %45, label %13

13:                                               ; preds = %3
  %14 = trunc i64 %12 to i32
  %15 = add nsw i32 %14, -1
  store i32 0, ptr %4, align 4
  store i32 %15, ptr %5, align 4
  store i32 1, ptr %6, align 4
  store i32 0, ptr %7, align 4
  %16 = load i32, ptr %0, align 4
  call void @__kmpc_for_static_init_4(ptr nonnull @1, i32 %16, i32 34, ptr nonnull %7, ptr nonnull %4, ptr nonnull %5, ptr nonnull %6, i32 1, i32 1)
  %17 = load i32, ptr %5, align 4
  %18 = call i32 @llvm.smin.i32(i32 %17, i32 %15)
  store i32 %18, ptr %5, align 4
  %19 = load i32, ptr %4, align 4
  %.not2022 = icmp sgt i32 %19, %18
  br i1 %.not2022, label %._crit_edge, label %.lr.ph

.lr.ph:                                           ; preds = %13
  %20 = getelementptr inbounds i8, ptr %2, i64 112
  %21 = getelementptr inbounds i8, ptr %2, i64 40
  %22 = getelementptr inbounds i8, ptr %2, i64 184
  %23 = sext i32 %19 to i64
  br label %24

24:                                               ; preds = %.lr.ph, %42
  %indvars.iv = phi i64 [ %23, %.lr.ph ], [ %indvars.iv.next, %42 ]
  %25 = load i64, ptr %10, align 8
  %26 = udiv i64 %indvars.iv, %25
  %27 = urem i64 %indvars.iv, %25
  %28 = load ptr, ptr %20, align 8
  %sext = shl i64 %26, 32
  %29 = ashr exact i64 %sext, 32
  %30 = mul i64 %29, %25
  %31 = load i64, ptr %21, align 8
  %32 = mul i64 %30, %31
  %33 = getelementptr inbounds float, ptr %28, i64 %32
  %sext21 = shl i64 %27, 32
  %34 = ashr exact i64 %sext21, 32
  %35 = mul i64 %34, %31
  %36 = getelementptr inbounds float, ptr %33, i64 %35
  %37 = load ptr, ptr %22, align 8
  %38 = mul i64 %30, %25
  %39 = getelementptr inbounds float, ptr %37, i64 %38
  %40 = mul i64 %34, %25
  %41 = getelementptr inbounds float, ptr %39, i64 %40
  invoke void @_ZN5faiss13fvec_L2sqr_nyEPfPKfS2_mm(ptr noundef %41, ptr noundef %36, ptr noundef %33, i64 noundef %31, i64 noundef %25)
          to label %42 unwind label %46

42:                                               ; preds = %24
  %indvars.iv.next = add nsw i64 %indvars.iv, 1
  %43 = load i32, ptr %5, align 4
  %44 = sext i32 %43 to i64
  %.not20.not = icmp slt i64 %indvars.iv, %44
  br i1 %.not20.not, label %24, label %._crit_edge

._crit_edge:                                      ; preds = %42, %13
  call void @__kmpc_for_static_fini(ptr nonnull @1, i32 %16)
  br label %45

45:                                               ; preds = %._crit_edge, %3
  ret void

46:                                               ; preds = %24
  %47 = landingpad { ptr, i32 }
          catch ptr null
  %48 = extractvalue { ptr, i32 } %47, 0
  call void @__clang_call_terminate(ptr %48) #26
  unreachable
}